target datalayout = "e-m:e-p270:32:32-p271:32:32-p272:64:64-i64:64-i128:128-f80:128-n8:16:32:64-S128"
target triple = "x86_64-pc-linux-gnu"

@s_Truths6 = internal global [6 x i64] [i64 -6148914691236517206, i64 -3689348814741910324, i64 -1085102592571150096, i64 -71777214294589696, i64 -281470681808896, i64 -4294967296], align 16
@s_Truths6Neg = internal global [6 x i64] [i64 6148914691236517205, i64 3689348814741910323, i64 1085102592571150095, i64 71777214294589695, i64 281470681808895, i64 4294967295], align 16

; Function Attrs: inlinehint nounwind uwtable
define internal i32 @Abc_LitNotCond(i32 noundef %0, i32 noundef %1) #4 {
  %3 = alloca i32, align 4
  %4 = alloca i32, align 4
  store i32 %0, ptr %3, align 4, !tbaa !9
  store i32 %1, ptr %4, align 4, !tbaa !9
  %5 = load i32, ptr %3, align 4, !tbaa !9
  %6 = load i32, ptr %4, align 4, !tbaa !9
  %7 = icmp sgt i32 %6, 0
  %8 = zext i1 %7 to i32
  %9 = xor i32 %5, %8
  ret i32 %9
}

; Function Attrs: inlinehint nounwind uwtable
define internal i32 @Abc_LitNot(i32 noundef %0) #4 {
  %2 = alloca i32, align 4
  store i32 %0, ptr %2, align 4, !tbaa !9
  %3 = load i32, ptr %2, align 4, !tbaa !9
  %4 = xor i32 %3, 1
  ret i32 %4
}

; Function Attrs: inlinehint nounwind uwtable
define internal i32 @Gia_ManAppendMux(ptr noundef %0, i32 noundef %1, i32 noundef %2, i32 noundef %3) #4 {
  %5 = alloca ptr, align 8
  %6 = alloca i32, align 4
  %7 = alloca i32, align 4
  %8 = alloca i32, align 4
  %9 = alloca i32, align 4
  %10 = alloca i32, align 4
  store ptr %0, ptr %5, align 8, !tbaa !94
  store i32 %1, ptr %6, align 4, !tbaa !9
  store i32 %2, ptr %7, align 4, !tbaa !9
  store i32 %3, ptr %8, align 4, !tbaa !9
  call void @llvm.lifetime.start.p0(i64 4, ptr %9) #13
  %11 = load ptr, ptr %5, align 8, !tbaa !94
  %12 = load i32, ptr %6, align 4, !tbaa !9
  %13 = call i32 @Abc_LitNot(i32 noundef %12)
  %14 = load i32, ptr %8, align 4, !tbaa !9
  %15 = call i32 @Gia_ManAppendAnd(ptr noundef %11, i32 noundef %13, i32 noundef %14)
  store i32 %15, ptr %9, align 4, !tbaa !9
  call void @llvm.lifetime.start.p0(i64 4, ptr %10) #13
  %16 = load ptr, ptr %5, align 8, !tbaa !94
  %17 = load i32, ptr %6, align 4, !tbaa !9
  %18 = load i32, ptr %7, align 4, !tbaa !9
  %19 = call i32 @Gia_ManAppendAnd(ptr noundef %16, i32 noundef %17, i32 noundef %18)
  store i32 %19, ptr %10, align 4, !tbaa !9
  %20 = load ptr, ptr %5, align 8, !tbaa !94
  %21 = load i32, ptr %9, align 4, !tbaa !9
  %22 = call i32 @Abc_LitNot(i32 noundef %21)
  %23 = load i32, ptr %10, align 4, !tbaa !9
  %24 = call i32 @Abc_LitNot(i32 noundef %23)
  %25 = call i32 @Gia_ManAppendAnd(ptr noundef %20, i32 noundef %22, i32 noundef %24)
  %26 = call i32 @Abc_LitNotCond(i32 noundef %25, i32 noundef 1)
  call void @llvm.lifetime.end.p0(i64 4, ptr %10) #13
  call void @llvm.lifetime.end.p0(i64 4, ptr %9) #13
  ret i32 %26
}

; Function Attrs: inlinehint nounwind uwtable
define internal i32 @Abc_Var2Lit(i32 noundef %0, i32 noundef %1) #4 {
  %3 = alloca i32, align 4
  %4 = alloca i32, align 4
  store i32 %0, ptr %3, align 4, !tbaa !9
  store i32 %1, ptr %4, align 4, !tbaa !9
  %5 = load i32, ptr %3, align 4, !tbaa !9
  %6 = load i32, ptr %3, align 4, !tbaa !9
  %7 = add nsw i32 %5, %6
  %8 = load i32, ptr %4, align 4, !tbaa !9
  %9 = add nsw i32 %7, %8
  ret i32 %9
}

; Function Attrs: inlinehint nounwind uwtable
define internal i64 @Abc_Tt6Cofactor1(i64 noundef %0, i32 noundef %1) #4 {
  %3 = alloca i64, align 8
  %4 = alloca i32, align 4
  store i64 %0, ptr %3, align 8, !tbaa !33
  store i32 %1, ptr %4, align 4, !tbaa !9
  %5 = load i64, ptr %3, align 8, !tbaa !33
  %6 = load i32, ptr %4, align 4, !tbaa !9
  %7 = sext i32 %6 to i64
  %8 = getelementptr inbounds [6 x i64], ptr @s_Truths6, i64 0, i64 %7
  %9 = load i64, ptr %8, align 8, !tbaa !33
  %10 = and i64 %5, %9
  %11 = load i64, ptr %3, align 8, !tbaa !33
  %12 = load i32, ptr %4, align 4, !tbaa !9
  %13 = sext i32 %12 to i64
  %14 = getelementptr inbounds [6 x i64], ptr @s_Truths6, i64 0, i64 %13
  %15 = load i64, ptr %14, align 8, !tbaa !33
  %16 = and i64 %11, %15
  %17 = load i32, ptr %4, align 4, !tbaa !9
  %18 = shl i32 1, %17
  %19 = zext i32 %18 to i64
  %20 = lshr i64 %16, %19
  %21 = or i64 %10, %20
  ret i64 %21
}

; Function Attrs: inlinehint nounwind uwtable
define internal i64 @Abc_Tt6Cofactor0(i64 noundef %0, i32 noundef %1) #4 {
  %3 = alloca i64, align 8
  %4 = alloca i32, align 4
  store i64 %0, ptr %3, align 8, !tbaa !33
  store i32 %1, ptr %4, align 4, !tbaa !9
  %5 = load i64, ptr %3, align 8, !tbaa !33
  %6 = load i32, ptr %4, align 4, !tbaa !9
  %7 = sext i32 %6 to i64
  %8 = getelementptr inbounds [6 x i64], ptr @s_Truths6Neg, i64 0, i64 %7
  %9 = load i64, ptr %8, align 8, !tbaa !33
  %10 = and i64 %5, %9
  %11 = load i64, ptr %3, align 8, !tbaa !33
  %12 = load i32, ptr %4, align 4, !tbaa !9
  %13 = sext i32 %12 to i64
  %14 = getelementptr inbounds [6 x i64], ptr @s_Truths6Neg, i64 0, i64 %13
  %15 = load i64, ptr %14, align 8, !tbaa !33
  %16 = and i64 %11, %15
  %17 = load i32, ptr %4, align 4, !tbaa !9
  %18 = shl i32 1, %17
  %19 = zext i32 %18 to i64
  %20 = shl i64 %16, %19
  %21 = or i64 %10, %20
  ret i64 %21
}

; Function Attrs: inlinehint nounwind uwtable
define internal i32 @Abc_Tt6HasVar(i64 noundef %0, i32 noundef %1) #4 {
  %3 = alloca i64, align 8
  %4 = alloca i32, align 4
  store i64 %0, ptr %3, align 8, !tbaa !33
  store i32 %1, ptr %4, align 4, !tbaa !9
  %5 = load i64, ptr %3, align 8, !tbaa !33
  %6 = load i32, ptr %4, align 4, !tbaa !9
  %7 = shl i32 1, %6
  %8 = zext i32 %7 to i64
  %9 = lshr i64 %5, %8
  %10 = load i32, ptr %4, align 4, !tbaa !9
  %11 = sext i32 %10 to i64
  %12 = getelementptr inbounds [6 x i64], ptr @s_Truths6Neg, i64 0, i64 %11
  %13 = load i64, ptr %12, align 8, !tbaa !33
  %14 = and i64 %9, %13
  %15 = load i64, ptr %3, align 8, !tbaa !33
  %16 = load i32, ptr %4, align 4, !tbaa !9
  %17 = sext i32 %16 to i64
  %18 = getelementptr inbounds [6 x i64], ptr @s_Truths6Neg, i64 0, i64 %17
  %19 = load i64, ptr %18, align 8, !tbaa !33
  %20 = and i64 %15, %19
  %21 = icmp ne i64 %14, %20
  %22 = zext i1 %21 to i32
  ret i32 %22
}

; Function Attrs: nounwind uwtable
define i32 @Gia_ManBuildMuxes6_rec(ptr noundef %0, i64 noundef %1, i32 noundef %2, ptr noundef %3) #0 {
  %5 = alloca i32, align 4
  %6 = alloca ptr, align 8
  %7 = alloca i64, align 8
  %8 = alloca i32, align 4
  %9 = alloca ptr, align 8
  %10 = alloca i32, align 4
  %11 = alloca i32, align 4
  %12 = alloca i32, align 4
  %13 = alloca i32, align 4
  store ptr %0, ptr %6, align 8, !tbaa !94
  store i64 %1, ptr %7, align 8, !tbaa !33
  store i32 %2, ptr %8, align 4, !tbaa !9
  store ptr %3, ptr %9, align 8, !tbaa !44
  call void @llvm.lifetime.start.p0(i64 4, ptr %10) #13
  call void @llvm.lifetime.start.p0(i64 4, ptr %11) #13
  call void @llvm.lifetime.start.p0(i64 4, ptr %12) #13
  %14 = load i64, ptr %7, align 8, !tbaa !33
  %15 = icmp eq i64 %14, 0
  br i1 %15, label %16, label %17

16:                                               ; preds = %4
  store i32 0, ptr %5, align 4
  store i32 1, ptr %13, align 4
  br label %72

17:                                               ; preds = %4
  %18 = load i64, ptr %7, align 8, !tbaa !33
  %19 = xor i64 %18, -1
  %20 = icmp eq i64 %19, 0
  br i1 %20, label %21, label %22

21:                                               ; preds = %17
  store i32 1, ptr %5, align 4
  store i32 1, ptr %13, align 4
  br label %72

22:                                               ; preds = %17
  %23 = load i32, ptr %8, align 4, !tbaa !9
  %24 = sub nsw i32 %23, 1
  store i32 %24, ptr %12, align 4, !tbaa !9
  br label %25

25:                                               ; preds = %35, %22
  %26 = load i32, ptr %12, align 4, !tbaa !9
  %27 = icmp sge i32 %26, 0
  br i1 %27, label %28, label %38

28:                                               ; preds = %25
  %29 = load i64, ptr %7, align 8, !tbaa !33
  %30 = load i32, ptr %12, align 4, !tbaa !9
  %31 = call i32 @Abc_Tt6HasVar(i64 noundef %29, i32 noundef %30)
  %32 = icmp ne i32 %31, 0
  br i1 %32, label %33, label %34

33:                                               ; preds = %28
  br label %38

34:                                               ; preds = %28
  br label %35

35:                                               ; preds = %34
  %36 = load i32, ptr %12, align 4, !tbaa !9
  %37 = add nsw i32 %36, -1
  store i32 %37, ptr %12, align 4, !tbaa !9
  br label %25, !llvm.loop !134

38:                                               ; preds = %33, %25
  %39 = load ptr, ptr %6, align 8, !tbaa !94
  %40 = load i64, ptr %7, align 8, !tbaa !33
  %41 = load i32, ptr %12, align 4, !tbaa !9
  %42 = call i64 @Abc_Tt6Cofactor0(i64 noundef %40, i32 noundef %41)
  %43 = load i32, ptr %12, align 4, !tbaa !9
  %44 = load ptr, ptr %9, align 8, !tbaa !44
  %45 = call i32 @Gia_ManBuildMuxes6_rec(ptr noundef %39, i64 noundef %42, i32 noundef %43, ptr noundef %44)
  store i32 %45, ptr %10, align 4, !tbaa !9
  %46 = load ptr, ptr %6, align 8, !tbaa !94
  %47 = load i64, ptr %7, align 8, !tbaa !33
  %48 = load i32, ptr %12, align 4, !tbaa !9
  %49 = call i64 @Abc_Tt6Cofactor1(i64 noundef %47, i32 noundef %48)
  %50 = load i32, ptr %12, align 4, !tbaa !9
  %51 = load ptr, ptr %9, align 8, !tbaa !44
  %52 = call i32 @Gia_ManBuildMuxes6_rec(ptr noundef %46, i64 noundef %49, i32 noundef %50, ptr noundef %51)
  store i32 %52, ptr %11, align 4, !tbaa !9
  %53 = load ptr, ptr %9, align 8, !tbaa !44
  %54 = icmp ne ptr %53, null
  br i1 %54, label %55, label %61

55:                                               ; preds = %38
  %56 = load ptr, ptr %9, align 8, !tbaa !44
  %57 = load i32, ptr %12, align 4, !tbaa !9
  %58 = sext i32 %57 to i64
  %59 = getelementptr inbounds i32, ptr %56, i64 %58
  %60 = load i32, ptr %59, align 4, !tbaa !9
  br label %63

61:                                               ; preds = %38
  %62 = load i32, ptr %12, align 4, !tbaa !9
  br label %63

63:                                               ; preds = %61, %55
  %64 = phi i32 [ %60, %55 ], [ %62, %61 ]
  store i32 %64, ptr %12, align 4, !tbaa !9
  %65 = load ptr, ptr %6, align 8, !tbaa !94
  %66 = load i32, ptr %12, align 4, !tbaa !9
  %67 = add nsw i32 1, %66
  %68 = call i32 @Abc_Var2Lit(i32 noundef %67, i32 noundef 0)
  %69 = load i32, ptr %11, align 4, !tbaa !9
  %70 = load i32, ptr %10, align 4, !tbaa !9
  %71 = call i32 @Gia_ManAppendMux(ptr noundef %65, i32 noundef %68, i32 noundef %69, i32 noundef %70)
  store i32 %71, ptr %5, align 4
  store i32 1, ptr %13, align 4
  br label %72

72:                                               ; preds = %63, %21, %16
  call void @llvm.lifetime.end.p0(i64 4, ptr %12) #13
  call void @llvm.lifetime.end.p0(i64 4, ptr %11) #13
  call void @llvm.lifetime.end.p0(i64 4, ptr %10) #13
  %73 = load i32, ptr %5, align 4
  ret i32 %73
}