; Function Attrs: nounwind uwtable
define i32 @Gia_ManBuildMuxes6_rec(ptr noundef %0, i64 noundef %1, i32 noundef %2, ptr noundef %3) local_unnamed_addr #0 {
  switch i64 %1, label %.preheader.preheader [
    i64 0, label %46
    i64 -1, label %7
  ]

.preheader.preheader:                             ; preds = %4
  %5 = zext i32 %2 to i64
  %smin = tail call i32 @llvm.smin.i32(i32 %2, i32 0)
  %6 = add i32 %smin, -1
  br label %.preheader

7:                                                ; preds = %4
  br label %46

.preheader:                                       ; preds = %.preheader.preheader, %10
  %indvars.iv = phi i64 [ %5, %.preheader.preheader ], [ %indvars.iv.next, %10 ]
  %8 = trunc nuw i64 %indvars.iv to i32
  %9 = icmp sgt i32 %8, 0
  br i1 %9, label %10, label %.preheader._crit_edge

.preheader._crit_edge:                            ; preds = %.preheader
  %.pre = shl nuw nsw i32 1, %6
  %.pre31 = zext nneg i32 %.pre to i64
  br label %split

10:                                               ; preds = %.preheader
  %indvars.iv.next = add nsw i64 %indvars.iv, -1
  %indvars = trunc i64 %indvars.iv.next to i32
  %11 = shl nuw i32 1, %indvars
  %12 = zext nneg i32 %11 to i64
  %13 = lshr i64 %1, %12
  %14 = and i64 %indvars.iv.next, 4294967295
  %15 = getelementptr inbounds nuw [6 x i64], ptr @s_Truths6Neg, i64 0, i64 %14
  %16 = load i64, ptr %15, align 8, !tbaa !16
  %17 = xor i64 %13, %1
  %18 = and i64 %16, %17
  %.not29 = icmp eq i64 %18, 0
  br i1 %.not29, label %.preheader, label %split, !llvm.loop !121

split:                                            ; preds = %10, %.preheader._crit_edge
  %.pre-phi32 = phi i64 [ %.pre31, %.preheader._crit_edge ], [ %12, %10 ]
  %.0.in.lcssa = phi i32 [ %smin, %.preheader._crit_edge ], [ %8, %10 ]
  %.0.lcssa = phi i32 [ %6, %.preheader._crit_edge ], [ %indvars, %10 ]
  %19 = sext i32 %.0.lcssa to i64
  %20 = getelementptr inbounds [6 x i64], ptr @s_Truths6Neg, i64 0, i64 %19
  %21 = load i64, ptr %20, align 8, !tbaa !16
  %22 = and i64 %21, %1
  %23 = shl i64 %22, %.pre-phi32
  %24 = or i64 %23, %22
  %25 = tail call i32 @Gia_ManBuildMuxes6_rec(ptr noundef %0, i64 noundef %24, i32 noundef %.0.lcssa, ptr noundef %3)
  %26 = getelementptr inbounds [6 x i64], ptr @s_Truths6, i64 0, i64 %19
  %27 = load i64, ptr %26, align 8, !tbaa !16
  %28 = and i64 %27, %1
  %29 = lshr i64 %28, %.pre-phi32
  %30 = or i64 %29, %28
  %31 = tail call i32 @Gia_ManBuildMuxes6_rec(ptr noundef %0, i64 noundef %30, i32 noundef %.0.lcssa, ptr noundef %3)
  %.not28 = icmp eq ptr %3, null
  br i1 %.not28, label %36, label %32

32:                                               ; preds = %split
  %33 = getelementptr inbounds i32, ptr %3, i64 %19
  %34 = load i32, ptr %33, align 4, !tbaa !4
  %35 = add nsw i32 %34, 1
  br label %36

36:                                               ; preds = %split, %32
  %37 = phi i32 [ %35, %32 ], [ %.0.in.lcssa, %split ]
  %38 = shl nsw i32 %37, 1
  %39 = or disjoint i32 %38, 1
  %40 = tail call fastcc i32 @Gia_ManAppendAnd(ptr noundef %0, i32 noundef %39, i32 noundef %25)
  %41 = tail call fastcc i32 @Gia_ManAppendAnd(ptr noundef %0, i32 noundef %38, i32 noundef %31)
  %42 = xor i32 %40, 1
  %43 = xor i32 %41, 1
  %44 = tail call fastcc i32 @Gia_ManAppendAnd(ptr noundef %0, i32 noundef %42, i32 noundef %43)
  %45 = xor i32 %44, 1
  br label %46

46:                                               ; preds = %4, %36, %7
  %.025 = phi i32 [ 1, %7 ], [ %45, %36 ], [ 0, %4 ]
  ret i32 %.025
}